target datalayout = "e-m:e-p270:32:32-p271:32:32-p272:64:64-i64:64-i128:128-f80:128-n8:16:32:64-S128"
target triple = "x86_64-pc-linux-gnu"

%struct.Vec_Int_t_ = type { i32, i32, ptr }

; Function Attrs: inlinehint nounwind uwtable
define internal void @Vec_IntGrow(ptr noundef %0, i32 noundef %1) #2 {
  %3 = alloca ptr, align 8
  %4 = alloca i32, align 4
  store ptr %0, ptr %3, align 8, !tbaa !8
  store i32 %1, ptr %4, align 4, !tbaa !10
  %5 = load ptr, ptr %3, align 8, !tbaa !8
  %6 = getelementptr inbounds nuw %struct.Vec_Int_t_, ptr %5, i32 0, i32 0
  %7 = load i32, ptr %6, align 8, !tbaa !48
  %8 = load i32, ptr %4, align 4, !tbaa !10
  %9 = icmp sge i32 %7, %8
  br i1 %9, label %10, label %11

10:                                               ; preds = %2
  br label %36

11:                                               ; preds = %2
  %12 = load ptr, ptr %3, align 8, !tbaa !8
  %13 = getelementptr inbounds nuw %struct.Vec_Int_t_, ptr %12, i32 0, i32 2
  %14 = load ptr, ptr %13, align 8, !tbaa !43
  %15 = icmp ne ptr %14, null
  br i1 %15, label %16, label %24

16:                                               ; preds = %11
  %17 = load ptr, ptr %3, align 8, !tbaa !8
  %18 = getelementptr inbounds nuw %struct.Vec_Int_t_, ptr %17, i32 0, i32 2
  %19 = load ptr, ptr %18, align 8, !tbaa !43
  %20 = load i32, ptr %4, align 4, !tbaa !10
  %21 = sext i32 %20 to i64
  %22 = mul i64 4, %21
  %23 = call ptr @realloc(ptr noundef %19, i64 noundef %22) #14
  br label %29

24:                                               ; preds = %11
  %25 = load i32, ptr %4, align 4, !tbaa !10
  %26 = sext i32 %25 to i64
  %27 = mul i64 4, %26
  %28 = call noalias ptr @malloc(i64 noundef %27) #12
  br label %29

29:                                               ; preds = %24, %16
  %30 = phi ptr [ %23, %16 ], [ %28, %24 ]
  %31 = load ptr, ptr %3, align 8, !tbaa !8
  %32 = getelementptr inbounds nuw %struct.Vec_Int_t_, ptr %31, i32 0, i32 2
  store ptr %30, ptr %32, align 8, !tbaa !43
  %33 = load i32, ptr %4, align 4, !tbaa !10
  %34 = load ptr, ptr %3, align 8, !tbaa !8
  %35 = getelementptr inbounds nuw %struct.Vec_Int_t_, ptr %34, i32 0, i32 0
  store i32 %33, ptr %35, align 8, !tbaa !48
  br label %36

36:                                               ; preds = %29, %10
  ret void
}

; Function Attrs: inlinehint nounwind uwtable
define internal i32 @Abc_LitRegular(i32 noundef %0) #2 {
  %2 = alloca i32, align 4
  store i32 %0, ptr %2, align 4, !tbaa !10
  %3 = load i32, ptr %2, align 4, !tbaa !10
  %4 = and i32 %3, -2
  ret i32 %4
}

; Function Attrs: inlinehint nounwind uwtable
define internal void @Vec_IntWriteEntry(ptr noundef %0, i32 noundef %1, i32 noundef %2) #2 {
  %4 = alloca ptr, align 8
  %5 = alloca i32, align 4
  %6 = alloca i32, align 4
  store ptr %0, ptr %4, align 8, !tbaa !8
  store i32 %1, ptr %5, align 4, !tbaa !10
  store i32 %2, ptr %6, align 4, !tbaa !10
  %7 = load i32, ptr %6, align 4, !tbaa !10
  %8 = load ptr, ptr %4, align 8, !tbaa !8
  %9 = getelementptr inbounds nuw %struct.Vec_Int_t_, ptr %8, i32 0, i32 2
  %10 = load ptr, ptr %9, align 8, !tbaa !43
  %11 = load i32, ptr %5, align 4, !tbaa !10
  %12 = sext i32 %11 to i64
  %13 = getelementptr inbounds i32, ptr %10, i64 %12
  store i32 %7, ptr %13, align 4, !tbaa !10
  ret void
}

; Function Attrs: inlinehint nounwind uwtable
define internal i32 @Abc_LitNot(i32 noundef %0) #2 {
  %2 = alloca i32, align 4
  store i32 %0, ptr %2, align 4, !tbaa !10
  %3 = load i32, ptr %2, align 4, !tbaa !10
  %4 = xor i32 %3, 1
  ret i32 %4
}

; Function Attrs: inlinehint nounwind uwtable
define internal i32 @Abc_LitIsCompl(i32 noundef %0) #2 {
  %2 = alloca i32, align 4
  store i32 %0, ptr %2, align 4, !tbaa !10
  %3 = load i32, ptr %2, align 4, !tbaa !10
  %4 = and i32 %3, 1
  ret i32 %4
}

; Function Attrs: inlinehint nounwind uwtable
define internal ptr @Vec_IntLimit(ptr noundef %0) #2 {
  %2 = alloca ptr, align 8
  store ptr %0, ptr %2, align 8, !tbaa !8
  %3 = load ptr, ptr %2, align 8, !tbaa !8
  %4 = getelementptr inbounds nuw %struct.Vec_Int_t_, ptr %3, i32 0, i32 2
  %5 = load ptr, ptr %4, align 8, !tbaa !43
  %6 = load ptr, ptr %2, align 8, !tbaa !8
  %7 = getelementptr inbounds nuw %struct.Vec_Int_t_, ptr %6, i32 0, i32 1
  %8 = load i32, ptr %7, align 4, !tbaa !41
  %9 = sext i32 %8 to i64
  %10 = getelementptr inbounds i32, ptr %5, i64 %9
  ret ptr %10
}

; Function Attrs: inlinehint nounwind uwtable
define internal ptr @Vec_IntArray(ptr noundef %0) #2 {
  %2 = alloca ptr, align 8
  store ptr %0, ptr %2, align 8, !tbaa !8
  %3 = load ptr, ptr %2, align 8, !tbaa !8
  %4 = getelementptr inbounds nuw %struct.Vec_Int_t_, ptr %3, i32 0, i32 2
  %5 = load ptr, ptr %4, align 8, !tbaa !43
  ret ptr %5
}

; Function Attrs: inlinehint nounwind uwtable
define internal void @Vec_IntPush(ptr noundef %0, i32 noundef %1) #2 {
  %3 = alloca ptr, align 8
  %4 = alloca i32, align 4
  store ptr %0, ptr %3, align 8, !tbaa !8
  store i32 %1, ptr %4, align 4, !tbaa !10
  %5 = load ptr, ptr %3, align 8, !tbaa !8
  %6 = getelementptr inbounds nuw %struct.Vec_Int_t_, ptr %5, i32 0, i32 1
  %7 = load i32, ptr %6, align 4, !tbaa !41
  %8 = load ptr, ptr %3, align 8, !tbaa !8
  %9 = getelementptr inbounds nuw %struct.Vec_Int_t_, ptr %8, i32 0, i32 0
  %10 = load i32, ptr %9, align 8, !tbaa !48
  %11 = icmp eq i32 %7, %10
  br i1 %11, label %12, label %26

12:                                               ; preds = %2
  %13 = load ptr, ptr %3, align 8, !tbaa !8
  %14 = getelementptr inbounds nuw %struct.Vec_Int_t_, ptr %13, i32 0, i32 0
  %15 = load i32, ptr %14, align 8, !tbaa !48
  %16 = icmp slt i32 %15, 16
  br i1 %16, label %17, label %19

17:                                               ; preds = %12
  %18 = load ptr, ptr %3, align 8, !tbaa !8
  call void @Vec_IntGrow(ptr noundef %18, i32 noundef 16)
  br label %25

19:                                               ; preds = %12
  %20 = load ptr, ptr %3, align 8, !tbaa !8
  %21 = load ptr, ptr %3, align 8, !tbaa !8
  %22 = getelementptr inbounds nuw %struct.Vec_Int_t_, ptr %21, i32 0, i32 0
  %23 = load i32, ptr %22, align 8, !tbaa !48
  %24 = mul nsw i32 2, %23
  call void @Vec_IntGrow(ptr noundef %20, i32 noundef %24)
  br label %25

25:                                               ; preds = %19, %17
  br label %26

26:                                               ; preds = %25, %2
  %27 = load i32, ptr %4, align 4, !tbaa !10
  %28 = load ptr, ptr %3, align 8, !tbaa !8
  %29 = getelementptr inbounds nuw %struct.Vec_Int_t_, ptr %28, i32 0, i32 2
  %30 = load ptr, ptr %29, align 8, !tbaa !43
  %31 = load ptr, ptr %3, align 8, !tbaa !8
  %32 = getelementptr inbounds nuw %struct.Vec_Int_t_, ptr %31, i32 0, i32 1
  %33 = load i32, ptr %32, align 4, !tbaa !41
  %34 = add nsw i32 %33, 1
  store i32 %34, ptr %32, align 4, !tbaa !41
  %35 = sext i32 %33 to i64
  %36 = getelementptr inbounds i32, ptr %30, i64 %35
  store i32 %27, ptr %36, align 4, !tbaa !10
  ret void
}

; Function Attrs: inlinehint nounwind uwtable
define internal i32 @Vec_IntEntry(ptr noundef %0, i32 noundef %1) #2 {
  %3 = alloca ptr, align 8
  %4 = alloca i32, align 4
  store ptr %0, ptr %3, align 8, !tbaa !8
  store i32 %1, ptr %4, align 4, !tbaa !10
  %5 = load ptr, ptr %3, align 8, !tbaa !8
  %6 = getelementptr inbounds nuw %struct.Vec_Int_t_, ptr %5, i32 0, i32 2
  %7 = load ptr, ptr %6, align 8, !tbaa !43
  %8 = load i32, ptr %4, align 4, !tbaa !10
  %9 = sext i32 %8 to i64
  %10 = getelementptr inbounds i32, ptr %7, i64 %9
  %11 = load i32, ptr %10, align 4, !tbaa !10
  ret i32 %11
}

; Function Attrs: inlinehint nounwind uwtable
define internal void @Vec_IntClear(ptr noundef %0) #2 {
  %2 = alloca ptr, align 8
  store ptr %0, ptr %2, align 8, !tbaa !8
  %3 = load ptr, ptr %2, align 8, !tbaa !8
  %4 = getelementptr inbounds nuw %struct.Vec_Int_t_, ptr %3, i32 0, i32 1
  store i32 0, ptr %4, align 4, !tbaa !41
  ret void
}

; Function Attrs: inlinehint nounwind uwtable
define internal i32 @Vec_IntSize(ptr noundef %0) #2 {
  %2 = alloca ptr, align 8
  store ptr %0, ptr %2, align 8, !tbaa !8
  %3 = load ptr, ptr %2, align 8, !tbaa !8
  %4 = getelementptr inbounds nuw %struct.Vec_Int_t_, ptr %3, i32 0, i32 1
  %5 = load i32, ptr %4, align 4, !tbaa !41
  ret i32 %5
}

; Function Attrs: nounwind uwtable
define i32 @Bmc_ComputeCanonical2(ptr noundef %0, ptr noundef %1, ptr noundef %2, i32 noundef %3) #0 {
  %5 = alloca i32, align 4
  %6 = alloca ptr, align 8
  %7 = alloca ptr, align 8
  %8 = alloca ptr, align 8
  %9 = alloca i32, align 4
  %10 = alloca i32, align 4
  %11 = alloca i32, align 4
  %12 = alloca i32, align 4
  %13 = alloca i32, align 4
  %14 = alloca i32, align 4
  store ptr %0, ptr %6, align 8, !tbaa !72
  store ptr %1, ptr %7, align 8, !tbaa !8
  store ptr %2, ptr %8, align 8, !tbaa !8
  store i32 %3, ptr %9, align 4, !tbaa !10
  call void @llvm.lifetime.start.p0(i64 4, ptr %10) #11
  call void @llvm.lifetime.start.p0(i64 4, ptr %11) #11
  call void @llvm.lifetime.start.p0(i64 4, ptr %12) #11
  call void @llvm.lifetime.start.p0(i64 4, ptr %13) #11
  store i32 0, ptr %13, align 4, !tbaa !10
  store i32 0, ptr %10, align 4, !tbaa !10
  br label %15

15:                                               ; preds = %93, %4
  %16 = load i32, ptr %10, align 4, !tbaa !10
  %17 = load ptr, ptr %7, align 8, !tbaa !8
  %18 = call i32 @Vec_IntSize(ptr noundef %17)
  %19 = icmp slt i32 %16, %18
  br i1 %19, label %20, label %96

20:                                               ; preds = %15
  %21 = load ptr, ptr %8, align 8, !tbaa !8
  call void @Vec_IntClear(ptr noundef %21)
  store i32 0, ptr %11, align 4, !tbaa !10
  br label %22

22:                                               ; preds = %36, %20
  %23 = load i32, ptr %11, align 4, !tbaa !10
  %24 = load i32, ptr %10, align 4, !tbaa !10
  %25 = add nsw i32 %24, 1
  %26 = icmp slt i32 %23, %25
  br i1 %26, label %27, label %31

27:                                               ; preds = %22
  %28 = load ptr, ptr %7, align 8, !tbaa !8
  %29 = load i32, ptr %11, align 4, !tbaa !10
  %30 = call i32 @Vec_IntEntry(ptr noundef %28, i32 noundef %29)
  store i32 %30, ptr %12, align 4, !tbaa !10
  br label %31

31:                                               ; preds = %27, %22
  %32 = phi i1 [ false, %22 ], [ true, %27 ]
  br i1 %32, label %33, label %39

33:                                               ; preds = %31
  %34 = load ptr, ptr %8, align 8, !tbaa !8
  %35 = load i32, ptr %12, align 4, !tbaa !10
  call void @Vec_IntPush(ptr noundef %34, i32 noundef %35)
  br label %36

36:                                               ; preds = %33
  %37 = load i32, ptr %11, align 4, !tbaa !10
  %38 = add nsw i32 %37, 1
  store i32 %38, ptr %11, align 4, !tbaa !10
  br label %22, !llvm.loop !126

39:                                               ; preds = %31
  %40 = load ptr, ptr %6, align 8, !tbaa !72
  %41 = load ptr, ptr %8, align 8, !tbaa !8
  %42 = call ptr @Vec_IntArray(ptr noundef %41)
  %43 = load ptr, ptr %8, align 8, !tbaa !8
  %44 = call ptr @Vec_IntLimit(ptr noundef %43)
  %45 = load i32, ptr %9, align 4, !tbaa !10
  %46 = sext i32 %45 to i64
  %47 = call i32 @sat_solver_solve(ptr noundef %40, ptr noundef %42, ptr noundef %44, i64 noundef %46, i64 noundef 0, i64 noundef 0, i64 noundef 0)
  store i32 %47, ptr %13, align 4, !tbaa !10
  %48 = load i32, ptr %13, align 4, !tbaa !10
  %49 = icmp eq i32 %48, 0
  br i1 %49, label %50, label %51

50:                                               ; preds = %39
  store i32 0, ptr %5, align 4
  store i32 1, ptr %14, align 4
  br label %98

51:                                               ; preds = %39
  %52 = load i32, ptr %13, align 4, !tbaa !10
  %53 = icmp eq i32 %52, 1
  br i1 %53, label %54, label %55

54:                                               ; preds = %51
  br label %93

55:                                               ; preds = %51
  %56 = load ptr, ptr %7, align 8, !tbaa !8
  %57 = load i32, ptr %10, align 4, !tbaa !10
  %58 = call i32 @Vec_IntEntry(ptr noundef %56, i32 noundef %57)
  store i32 %58, ptr %12, align 4, !tbaa !10
  %59 = load i32, ptr %12, align 4, !tbaa !10
  %60 = call i32 @Abc_LitIsCompl(i32 noundef %59)
  %61 = icmp ne i32 %60, 0
  br i1 %61, label %63, label %62

62:                                               ; preds = %55
  store i32 -1, ptr %5, align 4
  store i32 1, ptr %14, align 4
  br label %98

63:                                               ; preds = %55
  %64 = load ptr, ptr %7, align 8, !tbaa !8
  %65 = load i32, ptr %10, align 4, !tbaa !10
  %66 = load i32, ptr %12, align 4, !tbaa !10
  %67 = call i32 @Abc_LitNot(i32 noundef %66)
  call void @Vec_IntWriteEntry(ptr noundef %64, i32 noundef %65, i32 noundef %67)
  %68 = load i32, ptr %10, align 4, !tbaa !10
  %69 = add nsw i32 %68, 1
  store i32 %69, ptr %11, align 4, !tbaa !10
  br label %70

70:                                               ; preds = %87, %63
  %71 = load i32, ptr %11, align 4, !tbaa !10
  %72 = load ptr, ptr %7, align 8, !tbaa !8
  %73 = call i32 @Vec_IntSize(ptr noundef %72)
  %74 = icmp slt i32 %71, %73
  br i1 %74, label %75, label %79

75:                                               ; preds = %70
  %76 = load ptr, ptr %7, align 8, !tbaa !8
  %77 = load i32, ptr %11, align 4, !tbaa !10
  %78 = call i32 @Vec_IntEntry(ptr noundef %76, i32 noundef %77)
  store i32 %78, ptr %12, align 4, !tbaa !10
  br label %79

79:                                               ; preds = %75, %70
  %80 = phi i1 [ false, %70 ], [ true, %75 ]
  br i1 %80, label %81, label %90

81:                                               ; preds = %79
  %82 = load ptr, ptr %7, align 8, !tbaa !8
  %83 = load i32, ptr %11, align 4, !tbaa !10
  %84 = load i32, ptr %12, align 4, !tbaa !10
  %85 = call i32 @Abc_LitRegular(i32 noundef %84)
  %86 = call i32 @Abc_LitNot(i32 noundef %85)
  call void @Vec_IntWriteEntry(ptr noundef %82, i32 noundef %83, i32 noundef %86)
  br label %87

87:                                               ; preds = %81
  %88 = load i32, ptr %11, align 4, !tbaa !10
  %89 = add nsw i32 %88, 1
  store i32 %89, ptr %11, align 4, !tbaa !10
  br label %70, !llvm.loop !127

90:                                               ; preds = %79
  %91 = load i32, ptr %10, align 4, !tbaa !10
  %92 = add nsw i32 %91, -1
  store i32 %92, ptr %10, align 4, !tbaa !10
  br label %93

93:                                               ; preds = %90, %54
  %94 = load i32, ptr %10, align 4, !tbaa !10
  %95 = add nsw i32 %94, 1
  store i32 %95, ptr %10, align 4, !tbaa !10
  br label %15, !llvm.loop !128

96:                                               ; preds = %15
  %97 = load i32, ptr %13, align 4, !tbaa !10
  store i32 %97, ptr %5, align 4
  store i32 1, ptr %14, align 4
  br label %98

98:                                               ; preds = %96, %62, %50
  call void @llvm.lifetime.end.p0(i64 4, ptr %13) #11
  call void @llvm.lifetime.end.p0(i64 4, ptr %12) #11
  call void @llvm.lifetime.end.p0(i64 4, ptr %11) #11
  call void @llvm.lifetime.end.p0(i64 4, ptr %10) #11
  %99 = load i32, ptr %5, align 4
  ret i32 %99
}