; Function Attrs: nounwind uwtable
define noundef i32 @Bmc_ComputeCanonical2(ptr noundef %0, ptr noundef readonly captures(none) %1, ptr noundef captures(none) %2, i32 noundef %3) local_unnamed_addr #0 {
  %5 = getelementptr i8, ptr %1, i64 8
  %6 = getelementptr i8, ptr %1, i64 4
  %.val4358 = load i32, ptr %6, align 4, !tbaa !28
  %7 = icmp sgt i32 %.val4358, 0
  br i1 %7, label %.lr.ph60, label %._crit_edge

.lr.ph60:                                         ; preds = %4
  %8 = getelementptr inbounds nuw i8, ptr %2, i64 4
  %.phi.trans.insert.i = getelementptr i8, ptr %2, i64 8
  %9 = sext i32 %3 to i64
  br label %10

10:                                               ; preds = %.lr.ph60, %.critedge2
  %.03759 = phi i32 [ 0, %.lr.ph60 ], [ %.138, %.critedge2 ]
  store i32 0, ptr %8, align 4, !tbaa !28
  %.not52 = icmp slt i32 %.03759, 0
  br i1 %.not52, label %..critedge_crit_edge, label %.lr.ph.preheader

..critedge_crit_edge:                             ; preds = %10
  %.val47.pre = load ptr, ptr %.phi.trans.insert.i, align 8, !tbaa !29
  br label %.critedge

.lr.ph.preheader:                                 ; preds = %10
  %11 = add nuw nsw i32 %.03759, 1
  %wide.trip.count = zext nneg i32 %11 to i64
  br label %.lr.ph

.lr.ph:                                           ; preds = %Vec_IntPush.exit, %.lr.ph.preheader
  %12 = phi i32 [ 0, %.lr.ph.preheader ], [ %.val48.pre, %Vec_IntPush.exit ]
  %indvars.iv = phi i64 [ 0, %.lr.ph.preheader ], [ %indvars.iv.next, %Vec_IntPush.exit ]
  %.val46 = load ptr, ptr %5, align 8, !tbaa !29
  %13 = getelementptr inbounds nuw i32, ptr %.val46, i64 %indvars.iv
  %14 = load i32, ptr %13, align 4, !tbaa !30
  %15 = load i32, ptr %2, align 8, !tbaa !43
  %16 = icmp eq i32 %12, %15
  br i1 %16, label %17, label %.Vec_IntGrow.exit10_crit_edge.i

.Vec_IntGrow.exit10_crit_edge.i:                  ; preds = %.lr.ph
  %.pre.i = load ptr, ptr %.phi.trans.insert.i, align 8, !tbaa !29
  br label %Vec_IntPush.exit

17:                                               ; preds = %.lr.ph
  %18 = icmp slt i32 %12, 16
  br i1 %18, label %19, label %26

19:                                               ; preds = %17
  %20 = load ptr, ptr %.phi.trans.insert.i, align 8, !tbaa !29
  %.not9.i.i = icmp eq ptr %20, null
  br i1 %.not9.i.i, label %23, label %21

21:                                               ; preds = %19
  %22 = tail call dereferenceable_or_null(64) ptr @realloc(ptr noundef nonnull %20, i64 noundef 64) #14
  br label %Vec_IntGrow.exit.i

23:                                               ; preds = %19
  %24 = tail call noalias dereferenceable_or_null(64) ptr @malloc(i64 noundef 64) #15
  br label %Vec_IntGrow.exit.i

Vec_IntGrow.exit.i:                               ; preds = %23, %21
  %25 = phi ptr [ %22, %21 ], [ %24, %23 ]
  store ptr %25, ptr %.phi.trans.insert.i, align 8, !tbaa !29
  store i32 16, ptr %2, align 8, !tbaa !43
  br label %Vec_IntPush.exit

26:                                               ; preds = %17
  %27 = shl nuw nsw i32 %12, 1
  %28 = load ptr, ptr %.phi.trans.insert.i, align 8, !tbaa !29
  %.not9.i9.i = icmp eq ptr %28, null
  %29 = zext nneg i32 %27 to i64
  %30 = shl nuw nsw i64 %29, 2
  br i1 %.not9.i9.i, label %33, label %31

31:                                               ; preds = %26
  %32 = tail call ptr @realloc(ptr noundef nonnull %28, i64 noundef %30) #14
  br label %35

33:                                               ; preds = %26
  %34 = tail call noalias ptr @malloc(i64 noundef %30) #15
  br label %35

35:                                               ; preds = %33, %31
  %36 = phi ptr [ %32, %31 ], [ %34, %33 ]
  store ptr %36, ptr %.phi.trans.insert.i, align 8, !tbaa !29
  store i32 %27, ptr %2, align 8, !tbaa !43
  br label %Vec_IntPush.exit

Vec_IntPush.exit:                                 ; preds = %.Vec_IntGrow.exit10_crit_edge.i, %Vec_IntGrow.exit.i, %35
  %37 = phi ptr [ %.pre.i, %.Vec_IntGrow.exit10_crit_edge.i ], [ %36, %35 ], [ %25, %Vec_IntGrow.exit.i ]
  %38 = load i32, ptr %8, align 4, !tbaa !28
  %39 = add nsw i32 %38, 1
  store i32 %39, ptr %8, align 4, !tbaa !28
  %40 = sext i32 %38 to i64
  %41 = getelementptr inbounds i32, ptr %37, i64 %40
  store i32 %14, ptr %41, align 4, !tbaa !30
  %indvars.iv.next = add nuw nsw i64 %indvars.iv, 1
  %exitcond.not = icmp eq i64 %indvars.iv.next, %wide.trip.count
  %.val48.pre = load i32, ptr %8, align 4, !tbaa !28
  br i1 %exitcond.not, label %.critedge.loopexit, label %.lr.ph, !llvm.loop !114

.critedge.loopexit:                               ; preds = %Vec_IntPush.exit
  %42 = sext i32 %.val48.pre to i64
  br label %.critedge

.critedge:                                        ; preds = %..critedge_crit_edge, %.critedge.loopexit
  %.val48 = phi i64 [ 0, %..critedge_crit_edge ], [ %42, %.critedge.loopexit ]
  %.val47 = phi ptr [ %.val47.pre, %..critedge_crit_edge ], [ %37, %.critedge.loopexit ]
  %43 = getelementptr inbounds i32, ptr %.val47, i64 %.val48
  %44 = tail call i32 @sat_solver_solve(ptr noundef %0, ptr noundef %.val47, ptr noundef %43, i64 noundef %9, i64 noundef 0, i64 noundef 0, i64 noundef 0) #16
  switch i32 %44, label %46 [
    i32 0, label %._crit_edge
    i32 1, label %.critedge._crit_edge
  ]

.critedge._crit_edge:                             ; preds = %.critedge
  %.val43.pre = load i32, ptr %6, align 4, !tbaa !28
  %45 = add nsw i32 %.03759, 1
  br label %.critedge2

46:                                               ; preds = %.critedge
  %.val45 = load ptr, ptr %5, align 8, !tbaa !29
  %47 = sext i32 %.03759 to i64
  %48 = getelementptr inbounds i32, ptr %.val45, i64 %47
  %49 = load i32, ptr %48, align 4, !tbaa !30
  %50 = and i32 %49, 1
  %.not42 = icmp eq i32 %50, 0
  br i1 %.not42, label %._crit_edge, label %51

51:                                               ; preds = %46
  %52 = and i32 %49, -2
  store i32 %52, ptr %48, align 4, !tbaa !30
  %.154 = add nsw i32 %.03759, 1
  %.val55 = load i32, ptr %6, align 4, !tbaa !28
  %53 = icmp slt i32 %.154, %.val55
  br i1 %53, label %.lr.ph57.preheader, label %.critedge2

.lr.ph57.preheader:                               ; preds = %51
  %54 = sext i32 %.154 to i64
  br label %.lr.ph57

.lr.ph57:                                         ; preds = %.lr.ph57.preheader, %.lr.ph57
  %indvars.iv65 = phi i64 [ %54, %.lr.ph57.preheader ], [ %indvars.iv.next66, %.lr.ph57 ]
  %55 = getelementptr inbounds i32, ptr %.val45, i64 %indvars.iv65
  %56 = load i32, ptr %55, align 4, !tbaa !30
  %57 = or i32 %56, 1
  store i32 %57, ptr %55, align 4, !tbaa !30
  %indvars.iv.next66 = add nsw i64 %indvars.iv65, 1
  %.val = load i32, ptr %6, align 4, !tbaa !28
  %58 = sext i32 %.val to i64
  %59 = icmp slt i64 %indvars.iv.next66, %58
  br i1 %59, label %.lr.ph57, label %.critedge2, !llvm.loop !115

.critedge2:                                       ; preds = %.lr.ph57, %51, %.critedge._crit_edge
  %.val43 = phi i32 [ %.val43.pre, %.critedge._crit_edge ], [ %.val55, %51 ], [ %.val, %.lr.ph57 ]
  %.138 = phi i32 [ %45, %.critedge._crit_edge ], [ %.03759, %51 ], [ %.03759, %.lr.ph57 ]
  %60 = icmp slt i32 %.138, %.val43
  br i1 %60, label %10, label %._crit_edge, !llvm.loop !116

._crit_edge:                                      ; preds = %.critedge, %46, %.critedge2, %4
  %.039 = phi i32 [ 0, %4 ], [ %44, %.critedge2 ], [ -1, %46 ], [ %44, %.critedge ]
  ret i32 %.039
}